; Function Attrs: mustprogress uwtable
define internal fastcc noundef zeroext i1 @_ZN4cvc58internal6theory2bv12_GLOBAL__N_18isBVAtomENS0_12NodeTemplateILb0EEE(ptr nocapture noundef readonly %n) unnamed_addr #3 personality ptr @__gxx_personality_v0 {
entry:
  %ref.tmp = alloca %"class.cvc5::internal::TypeNode", align 8
  %ref.tmp1 = alloca %"class.cvc5::internal::NodeTemplate", align 8
  %0 = load ptr, ptr %n, align 8
  %d_kind.i = getelementptr inbounds i8, ptr %0, i64 8
  %bf.load.i = load i16, ptr %d_kind.i, align 8
  %bf.clear.i = and i16 %bf.load.i, 1023
  %cmp = icmp eq i16 %bf.clear.i, 5
  br i1 %cmp, label %land.lhs.true, label %lor.lhs.false

land.lhs.true:                                    ; preds = %entry
  tail call void @llvm.experimental.noalias.scope.decl(metadata !23)
  %call2.i.i.i = tail call noundef i32 @_ZN4cvc58internal4kind10metaKindOfENS1_6Kind_tE(i32 noundef 5), !noalias !23
  %cmp.i.i = icmp eq i32 %call2.i.i.i, 2
  %d_children.i.i = getelementptr inbounds i8, ptr %0, i64 16
  %idxprom.i.i = zext i1 %cmp.i.i to i64
  %arrayidx.i.i = getelementptr inbounds [0 x ptr], ptr %d_children.i.i, i64 0, i64 %idxprom.i.i
  %1 = load ptr, ptr %arrayidx.i.i, align 8, !noalias !23
  store ptr %1, ptr %ref.tmp1, align 8, !alias.scope !23
  call void @_ZNK4cvc58internal12NodeTemplateILb0EE7getTypeEb(ptr nonnull sret(%"class.cvc5::internal::TypeNode") align 8 %ref.tmp, ptr noundef nonnull align 8 dereferenceable(8) %ref.tmp1, i1 noundef zeroext false)
  %call5 = invoke noundef zeroext i1 @_ZNK4cvc58internal8TypeNode11isBitVectorEv(ptr noundef nonnull align 8 dereferenceable(8) %ref.tmp)
          to label %invoke.cont4 unwind label %lpad3

invoke.cont4:                                     ; preds = %land.lhs.true
  br i1 %call5, label %cleanup.action, label %invoke.cont4.lor.lhs.false_crit_edge

invoke.cont4.lor.lhs.false_crit_edge:             ; preds = %invoke.cont4
  %.pre = load ptr, ptr %n, align 8
  %d_kind.i2.phi.trans.insert = getelementptr inbounds i8, ptr %.pre, i64 8
  %bf.load.i3.pre = load i16, ptr %d_kind.i2.phi.trans.insert, align 8
  %.pre20 = and i16 %bf.load.i3.pre, 1023
  br label %lor.lhs.false

lor.lhs.false:                                    ; preds = %invoke.cont4.lor.lhs.false_crit_edge, %entry
  %bf.clear.i4.pre-phi = phi i16 [ %.pre20, %invoke.cont4.lor.lhs.false_crit_edge ], [ %bf.clear.i, %entry ]
  switch i16 %bf.clear.i4.pre-phi, label %lor.rhs [
    i16 107, label %lor.end
    i16 106, label %lor.end
    i16 111, label %lor.end
  ]

lor.rhs:                                          ; preds = %lor.lhs.false
  %cmp19 = icmp eq i16 %bf.clear.i4.pre-phi, 110
  br i1 %cmp, label %cleanup.action, label %cleanup.done25

lor.end:                                          ; preds = %lor.lhs.false, %lor.lhs.false, %lor.lhs.false
  br i1 %cmp, label %cleanup.action, label %cleanup.done25

cleanup.action:                                   ; preds = %invoke.cont4, %lor.rhs, %lor.end
  %2 = phi i1 [ true, %lor.end ], [ %cmp19, %lor.rhs ], [ true, %invoke.cont4 ]
  %3 = load ptr, ptr %ref.tmp, align 8
  %bf.load.i.i = load i64, ptr %3, align 8
  %4 = and i64 %bf.load.i.i, 1152920405095219200
  %cmp.not.i.i = icmp eq i64 %4, 1152920405095219200
  br i1 %cmp.not.i.i, label %cleanup.done25, label %if.then.i.i

if.then.i.i:                                      ; preds = %cleanup.action
  %bf.value.i.i = add i64 %bf.load.i.i, 1152920405095219200
  %bf.shl.i.i = and i64 %bf.value.i.i, 1152920405095219200
  %bf.clear7.i.i = and i64 %bf.load.i.i, -1152920405095219201
  %bf.set.i.i = or disjoint i64 %bf.shl.i.i, %bf.clear7.i.i
  store i64 %bf.set.i.i, ptr %3, align 8
  %cmp12.i.i = icmp eq i64 %bf.shl.i.i, 0
  br i1 %cmp12.i.i, label %if.then13.i.i, label %cleanup.done25

if.then13.i.i:                                    ; preds = %if.then.i.i
  invoke void @_ZN4cvc58internal4expr9NodeValue15markForDeletionEv(ptr noundef nonnull align 8 dereferenceable(16) %3)
          to label %cleanup.done25 unwind label %terminate.lpad.i

terminate.lpad.i:                                 ; preds = %if.then13.i.i
  %5 = landingpad { ptr, i32 }
          catch ptr null
  %6 = extractvalue { ptr, i32 } %5, 0
  call void @__clang_call_terminate(ptr %6) #18
  unreachable

cleanup.done25:                                   ; preds = %if.then13.i.i, %if.then.i.i, %cleanup.action, %lor.rhs, %lor.end
  %7 = phi i1 [ true, %lor.end ], [ %cmp19, %lor.rhs ], [ %2, %cleanup.action ], [ %2, %if.then.i.i ], [ %2, %if.then13.i.i ]
  ret i1 %7

lpad3:                                            ; preds = %land.lhs.true
  %8 = landingpad { ptr, i32 }
          cleanup
  call void @_ZN4cvc58internal8TypeNodeD2Ev(ptr noundef nonnull align 8 dereferenceable(8) %ref.tmp) #16
  resume { ptr, i32 } %8
}